target datalayout = "e-m:e-p270:32:32-p271:32:32-p272:64:64-i64:64-i128:128-f80:128-n8:16:32:64-S128"
target triple = "x86_64-pc-linux-gnu"

%struct.Agobj_s = type { %struct.Agtag_s, ptr }
%struct.Agtag_s = type { i32, i64 }
%struct.Agraphinfo_t = type { %struct.Agrec_s, ptr, ptr, %struct.boxf, [4 x %struct.pointf_s], i8, i8, i8, i8, i32, double, double, i16, ptr, ptr, ptr, ptr, i32, ptr, ptr, ptr, ptr, i16, i16, i32, ptr, ptr, ptr, ptr, ptr, i32, ptr, ptr, %struct.nlist_t, ptr, ptr, i32, i32, i8, i8, i32, i32, i32, ptr, ptr, ptr, ptr, i8, i8, i8, i8, i8 }
%struct.Agrec_s = type { ptr, ptr }
%struct.boxf = type { %struct.pointf_s, %struct.pointf_s }
%struct.pointf_s = type { double, double }
%struct.nlist_t = type { ptr, i64 }

@G_margin = external global ptr, align 8

; Function Attrs: nounwind uwtable
define internal void @contain_subclust(ptr noundef %0) #0 {
  %2 = alloca ptr, align 8
  %3 = alloca i32, align 4
  %4 = alloca i32, align 4
  %5 = alloca ptr, align 8
  store ptr %0, ptr %2, align 8, !tbaa !3
  call void @llvm.lifetime.start.p0(i64 4, ptr %3) #11
  call void @llvm.lifetime.start.p0(i64 4, ptr %4) #11
  call void @llvm.lifetime.start.p0(i64 8, ptr %5) #11
  %6 = load ptr, ptr %2, align 8, !tbaa !3
  %7 = load ptr, ptr @G_margin, align 8, !tbaa !75
  %8 = call i32 @late_int(ptr noundef %6, ptr noundef %7, i32 noundef 8, i32 noundef 0)
  store i32 %8, ptr %3, align 4, !tbaa !36
  %9 = load ptr, ptr %2, align 8, !tbaa !3
  call void @make_lrvn(ptr noundef %9)
  store i32 1, ptr %4, align 4, !tbaa !36
  br label %10

10:                                               ; preds = %72, %1
  %11 = load i32, ptr %4, align 4, !tbaa !36
  %12 = load ptr, ptr %2, align 8, !tbaa !3
  %13 = getelementptr inbounds nuw %struct.Agobj_s, ptr %12, i32 0, i32 1
  %14 = load ptr, ptr %13, align 8, !tbaa !8
  %15 = getelementptr inbounds nuw %struct.Agraphinfo_t, ptr %14, i32 0, i32 24
  %16 = load i32, ptr %15, align 4, !tbaa !173
  %17 = icmp sle i32 %11, %16
  br i1 %17, label %18, label %75

18:                                               ; preds = %10
  %19 = load ptr, ptr %2, align 8, !tbaa !3
  %20 = getelementptr inbounds nuw %struct.Agobj_s, ptr %19, i32 0, i32 1
  %21 = load ptr, ptr %20, align 8, !tbaa !8
  %22 = getelementptr inbounds nuw %struct.Agraphinfo_t, ptr %21, i32 0, i32 25
  %23 = load ptr, ptr %22, align 8, !tbaa !177
  %24 = load i32, ptr %4, align 4, !tbaa !36
  %25 = sext i32 %24 to i64
  %26 = getelementptr inbounds ptr, ptr %23, i64 %25
  %27 = load ptr, ptr %26, align 8, !tbaa !3
  store ptr %27, ptr %5, align 8, !tbaa !3
  %28 = load ptr, ptr %5, align 8, !tbaa !3
  call void @make_lrvn(ptr noundef %28)
  %29 = load ptr, ptr %2, align 8, !tbaa !3
  %30 = getelementptr inbounds nuw %struct.Agobj_s, ptr %29, i32 0, i32 1
  %31 = load ptr, ptr %30, align 8, !tbaa !8
  %32 = getelementptr inbounds nuw %struct.Agraphinfo_t, ptr %31, i32 0, i32 43
  %33 = load ptr, ptr %32, align 8, !tbaa !174
  %34 = load ptr, ptr %5, align 8, !tbaa !3
  %35 = getelementptr inbounds nuw %struct.Agobj_s, ptr %34, i32 0, i32 1
  %36 = load ptr, ptr %35, align 8, !tbaa !8
  %37 = getelementptr inbounds nuw %struct.Agraphinfo_t, ptr %36, i32 0, i32 43
  %38 = load ptr, ptr %37, align 8, !tbaa !174
  %39 = load i32, ptr %3, align 4, !tbaa !36
  %40 = sitofp i32 %39 to double
  %41 = load ptr, ptr %2, align 8, !tbaa !3
  %42 = getelementptr inbounds nuw %struct.Agobj_s, ptr %41, i32 0, i32 1
  %43 = load ptr, ptr %42, align 8, !tbaa !8
  %44 = getelementptr inbounds nuw %struct.Agraphinfo_t, ptr %43, i32 0, i32 4
  %45 = getelementptr inbounds [4 x %struct.pointf_s], ptr %44, i64 0, i64 3
  %46 = getelementptr inbounds nuw %struct.pointf_s, ptr %45, i32 0, i32 0
  %47 = load double, ptr %46, align 8, !tbaa !110
  %48 = fadd double %40, %47
  %49 = call ptr @make_aux_edge(ptr noundef %33, ptr noundef %38, double noundef %48, i32 noundef 0)
  %50 = load ptr, ptr %5, align 8, !tbaa !3
  %51 = getelementptr inbounds nuw %struct.Agobj_s, ptr %50, i32 0, i32 1
  %52 = load ptr, ptr %51, align 8, !tbaa !8
  %53 = getelementptr inbounds nuw %struct.Agraphinfo_t, ptr %52, i32 0, i32 44
  %54 = load ptr, ptr %53, align 8, !tbaa !175
  %55 = load ptr, ptr %2, align 8, !tbaa !3
  %56 = getelementptr inbounds nuw %struct.Agobj_s, ptr %55, i32 0, i32 1
  %57 = load ptr, ptr %56, align 8, !tbaa !8
  %58 = getelementptr inbounds nuw %struct.Agraphinfo_t, ptr %57, i32 0, i32 44
  %59 = load ptr, ptr %58, align 8, !tbaa !175
  %60 = load i32, ptr %3, align 4, !tbaa !36
  %61 = sitofp i32 %60 to double
  %62 = load ptr, ptr %2, align 8, !tbaa !3
  %63 = getelementptr inbounds nuw %struct.Agobj_s, ptr %62, i32 0, i32 1
  %64 = load ptr, ptr %63, align 8, !tbaa !8
  %65 = getelementptr inbounds nuw %struct.Agraphinfo_t, ptr %64, i32 0, i32 4
  %66 = getelementptr inbounds [4 x %struct.pointf_s], ptr %65, i64 0, i64 1
  %67 = getelementptr inbounds nuw %struct.pointf_s, ptr %66, i32 0, i32 0
  %68 = load double, ptr %67, align 8, !tbaa !110
  %69 = fadd double %61, %68
  %70 = call ptr @make_aux_edge(ptr noundef %54, ptr noundef %59, double noundef %69, i32 noundef 0)
  %71 = load ptr, ptr %5, align 8, !tbaa !3
  call void @contain_subclust(ptr noundef %71)
  br label %72

72:                                               ; preds = %18
  %73 = load i32, ptr %4, align 4, !tbaa !36
  %74 = add nsw i32 %73, 1
  store i32 %74, ptr %4, align 4, !tbaa !36
  br label %10, !llvm.loop !183

75:                                               ; preds = %10
  call void @llvm.lifetime.end.p0(i64 8, ptr %5) #11
  call void @llvm.lifetime.end.p0(i64 4, ptr %4) #11
  call void @llvm.lifetime.end.p0(i64 4, ptr %3) #11
  ret void
}