; Function Attrs: nounwind uwtable
define internal fastcc void @contain_subclust(ptr noundef %0) unnamed_addr #0 {
  %2 = load ptr, ptr @G_margin, align 8, !tbaa !148
  %3 = tail call i32 @late_int(ptr noundef %0, ptr noundef %2, i32 noundef 8, i32 noundef 0) #15
  tail call fastcc void @make_lrvn(ptr noundef %0)
  %4 = getelementptr inbounds nuw i8, ptr %0, i64 16
  %5 = load ptr, ptr %4, align 8, !tbaa !3
  %6 = getelementptr inbounds nuw i8, ptr %5, i64 236
  %7 = load i32, ptr %6, align 4, !tbaa !112
  %.not16 = icmp slt i32 %7, 1
  br i1 %.not16, label %._crit_edge, label %.lr.ph

.lr.ph:                                           ; preds = %1
  %8 = sitofp i32 %3 to double
  br label %9

9:                                                ; preds = %.lr.ph, %9
  %indvars.iv = phi i64 [ 1, %.lr.ph ], [ %indvars.iv.next, %9 ]
  %10 = phi ptr [ %5, %.lr.ph ], [ %36, %9 ]
  %11 = getelementptr inbounds nuw i8, ptr %10, i64 240
  %12 = load ptr, ptr %11, align 8, !tbaa !165
  %13 = getelementptr inbounds nuw ptr, ptr %12, i64 %indvars.iv
  %14 = load ptr, ptr %13, align 8, !tbaa !166
  tail call fastcc void @make_lrvn(ptr noundef %14)
  %15 = load ptr, ptr %4, align 8, !tbaa !3
  %16 = getelementptr inbounds nuw i8, ptr %15, i64 360
  %17 = load ptr, ptr %16, align 8, !tbaa !118
  %18 = getelementptr inbounds nuw i8, ptr %14, i64 16
  %19 = load ptr, ptr %18, align 8, !tbaa !3
  %20 = getelementptr inbounds nuw i8, ptr %19, i64 360
  %21 = load ptr, ptr %20, align 8, !tbaa !118
  %22 = getelementptr inbounds nuw i8, ptr %15, i64 112
  %23 = load double, ptr %22, align 8, !tbaa !174
  %24 = fadd double %23, %8
  %25 = tail call ptr @make_aux_edge(ptr noundef %17, ptr noundef %21, double noundef %24, i32 noundef 0)
  %26 = load ptr, ptr %18, align 8, !tbaa !3
  %27 = getelementptr inbounds nuw i8, ptr %26, i64 368
  %28 = load ptr, ptr %27, align 8, !tbaa !119
  %29 = load ptr, ptr %4, align 8, !tbaa !3
  %30 = getelementptr inbounds nuw i8, ptr %29, i64 368
  %31 = load ptr, ptr %30, align 8, !tbaa !119
  %32 = getelementptr inbounds nuw i8, ptr %29, i64 80
  %33 = load double, ptr %32, align 8, !tbaa !174
  %34 = fadd double %33, %8
  %35 = tail call ptr @make_aux_edge(ptr noundef %28, ptr noundef %31, double noundef %34, i32 noundef 0)
  tail call fastcc void @contain_subclust(ptr noundef %14)
  %indvars.iv.next = add nuw nsw i64 %indvars.iv, 1
  %36 = load ptr, ptr %4, align 8, !tbaa !3
  %37 = getelementptr inbounds nuw i8, ptr %36, i64 236
  %38 = load i32, ptr %37, align 4, !tbaa !112
  %39 = sext i32 %38 to i64
  %.not.not = icmp slt i64 %indvars.iv, %39
  br i1 %.not.not, label %9, label %._crit_edge, !llvm.loop !175

._crit_edge:                                      ; preds = %9, %1
  ret void
}